; Function Attrs: nounwind sspstrong uwtable
define internal noundef i64 @ossl_cipher_reset(i64 noundef returned %0) #0 {
  %2 = tail call ptr @rb_check_typeddata(i64 noundef %0, ptr noundef nonnull @ossl_cipher_type) #11
  %.not = icmp eq ptr %2, null
  br i1 %.not, label %3, label %5

3:                                                ; preds = %1
  %4 = load i64, ptr @rb_eRuntimeError, align 8, !tbaa !6
  tail call void (i64, ptr, ...) @ossl_raise(i64 noundef %4, ptr noundef nonnull @.str) #12
  unreachable

5:                                                ; preds = %1
  %6 = tail call i32 @EVP_CipherInit_ex(ptr noundef nonnull %2, ptr noundef null, ptr noundef null, ptr noundef null, ptr noundef null, i32 noundef -1) #11
  %.not3 = icmp eq i32 %6, 1
  br i1 %.not3, label %9, label %7

7:                                                ; preds = %5
  %8 = load i64, ptr @eCipherError, align 8, !tbaa !6
  tail call void (i64, ptr, ...) @ossl_raise(i64 noundef %8, ptr noundef null) #12
  unreachable

9:                                                ; preds = %5
  ret i64 %0
}